target datalayout = "e-m:e-p270:32:32-p271:32:32-p272:64:64-i64:64-i128:128-f80:128-n8:16:32:64-S128"
target triple = "x86_64-pc-linux-gnu"

; Function Attrs: nounwind sspstrong uwtable
define hidden i32 @pm_string_query_constant(ptr noundef %0, i64 noundef %1, ptr noundef %2) #0 {
  %4 = alloca i32, align 4
  %5 = alloca ptr, align 8
  %6 = alloca i64, align 8
  %7 = alloca ptr, align 8
  store ptr %0, ptr %5, align 8, !tbaa !12
  store i64 %1, ptr %6, align 8, !tbaa !14
  store ptr %2, ptr %7, align 8, !tbaa !12
  %8 = load ptr, ptr %5, align 8, !tbaa !12
  %9 = load i64, ptr %6, align 8, !tbaa !14
  %10 = load ptr, ptr %7, align 8, !tbaa !12
  %11 = call i32 @pm_slice_type(ptr noundef %8, i64 noundef %9, ptr noundef %10)
  switch i32 %11, label %15 [
    i32 -1, label %12
    i32 0, label %13
    i32 1, label %13
    i32 3, label %13
    i32 2, label %14
  ]

12:                                               ; preds = %3
  store i32 -1, ptr %4, align 4
  br label %16

13:                                               ; preds = %3, %3, %3
  store i32 0, ptr %4, align 4
  br label %16

14:                                               ; preds = %3
  store i32 1, ptr %4, align 4
  br label %16

15:                                               ; preds = %3
  store i32 0, ptr %4, align 4
  br label %16

16:                                               ; preds = %15, %14, %13, %12
  %17 = load i32, ptr %4, align 4
  ret i32 %17
}