; Function Attrs: nounwind sspstrong uwtable
define hidden range(i32 -1, 2) i32 @pm_string_query_constant(ptr noundef %0, i64 noundef %1, ptr noundef %2) local_unnamed_addr #1 {
switch.lookup:
  %3 = tail call i32 @pm_slice_type(ptr noundef %0, i64 noundef %1, ptr noundef %2)
  %switch.tableidx = add nsw i32 %3, 1
  %4 = sext i32 %switch.tableidx to i64
  %switch.gep = getelementptr inbounds [5 x i32], ptr @switch.table.pm_string_query_constant, i64 0, i64 %4
  %switch.load = load i32, ptr %switch.gep, align 4
  ret i32 %switch.load
}